(iMyConfiguration
CfgContainer
p0
(dp1
S'guiCfg'
p2
(iMyConfiguration
GuiLayoutConfiguration
p3
(dp4
S'statusDisplayCfgList'
p5
(lp6
(iMyConfiguration
GuiStatusDisplayCfg
p7
(dp8
S'colSetting'
p9
(lp10
I126
aI120
asS'nodeList'
p11
(lp12
(iMyIoNode
IoNode
p13
(dp14
S'category'
p15
(iMyIoNode
IoNodeCategory
p16
(dp17
S'ioNodeList'
p18
(lp19
g13
a(iMyIoNode
IoNode
p20
(dp21
g15
g16
sS'name'
p22
V\u8f93\u51652
p23
sS'onInfo'
p24
V\u95ed\u5408
p25
sS'offInfo'
p26
V\u65ad\u5f00
p27
sS'station'
p28
(iMyCanStation
DeviceCanStation
p29
(dp30
S'info'
p31
V\u672a\u5b9a\u4e49
p32
sS'InputBoardList'
p33
(lp34
(iMyCanStation
DeviceIoBoard
p35
(dp36
S'boardType'
p37
I1
sS'outputStatus'
p38
I255
sS'boardId'
p39
I1
sS'isOk'
p40
I0
sS'pendingReq'
p41
I0
sg28
g29
sS'IoStatus'
p42
I253
sS'boardStatus'
p43
I1
sbasg22
V\u9ed8\u8ba4\u7ad9\u70b9
p44
sS'OutputBoardList'
p45
(lp46
(iMyCanStation
DeviceIoBoard
p47
(dp48
g37
I2
sg38
I253
sg39
I1
sg40
I0
sg41
I0
sg28
g29
sg42
I0
sg43
I1
sbasS'pendingStatusCheck'
p49
I0
sS'stationId'
p50
I1
sbsS'board'
p51
g35
sS'onOffFlag'
p52
I0
sS'port'
p53
I2
sS'desc'
p54
V
p55
sba(iMyIoNode
IoNode
p56
(dp57
g15
g16
sg22
V\u8f93\u51653
p58
sg24
V\u95ed\u5408
p59
sg26
V\u65ad\u5f00
p60
sg28
g29
sg51
g35
sg52
I0
sg53
I3
sg54
g55
sba(iMyIoNode
IoNode
p61
(dp62
g15
g16
sg22
V\u8f93\u51654
p63
sg24
V\u95ed\u5408
p64
sg26
V\u65ad\u5f00
p65
sg28
g29
sg51
g35
sg52
I0
sg53
I4
sg54
g55
sba(iMyIoNode
IoNode
p66
(dp67
g15
g16
sg22
V\u8f93\u51655
p68
sg24
V\u95ed\u5408
p69
sg26
V\u65ad\u5f00
p70
sg28
g29
sg51
g35
sg52
I0
sg53
I5
sg54
g55
sba(iMyIoNode
IoNode
p71
(dp72
g15
g16
sg22
V\u8f93\u51656
p73
sg24
V\u95ed\u5408
p74
sg26
V\u65ad\u5f00
p75
sg28
g29
sg51
g35
sg52
I0
sg53
I6
sg54
g55
sba(iMyIoNode
IoNode
p76
(dp77
g15
g16
sg22
V\u8f93\u51657
p78
sg24
V\u95ed\u5408
p79
sg26
V\u65ad\u5f00
p80
sg28
g29
sg51
g35
sg52
I0
sg53
I7
sg54
g55
sba(iMyIoNode
IoNode
p81
(dp82
g15
g16
sg22
V\u8f93\u51658
p83
sg24
V\u95ed\u5408
p84
sg26
V\u65ad\u5f00
p85
sg28
g29
sg51
g35
sg52
I0
sg53
I8
sg54
g55
sbasS'type'
p86
I1
sg22
V\u9ed8\u8ba4\u5206\u7ec4
p87
sbsg22
V\u8f93\u51651
p88
sg24
V\u95ed\u5408
p89
sg26
V\u65ad\u5f00
p90
sg28
g29
sg51
g35
sg52
I0
sg53
I1
sg54
g55
sbag20
ag56
ag61
ag66
ag71
ag76
ag81
asS'pos'
p91
(I487
I169
tp92
sbasbsS'stationCfg'
p93
(iMyConfiguration
StationConfiguration
p94
(dp95
S'stationList'
p96
(lp97
g29
asbsS'actionGroupCfg'
p98
(iMyConfiguration
ActionGroupConfiguration
p99
(dp100
S'actionGrpList'
p101
(lp102
(iMyAction
ActionGroup
p103
(dp104
g31
V\u672a\u5b9a\u4e49
p105
sg22
V\u8f93\u51fa1\u5f00
p106
sS'actions'
p107
(lp108
(iMyAction
ActionOutput
p109
(dp110
S'feedbackTimeout'
p111
I0
sS'feedbackObj'
p112
NsS'needFeedback'
p113
I0
sg86
I0
sS'outputValue'
p114
I1
sS'outputObj'
p115
(iMyIoNode
IoNode
p116
(dp117
g15
(iMyIoNode
IoNodeCategory
p118
(dp119
g18
(lp120
g116
a(iMyIoNode
IoNode
p121
(dp122
g15
g118
sg22
V\u8f93\u51652
p123
sg24
g55
sg26
g55
sg28
g29
sg51
g47
sg52
I0
sg53
I2
sg54
g55
sba(iMyIoNode
IoNode
p124
(dp125
g15
g118
sg22
V\u8f93\u51653
p126
sg24
g55
sg26
g55
sg28
g29
sg51
g47
sg52
I0
sg53
I3
sg54
g55
sba(iMyIoNode
IoNode
p127
(dp128
g15
g118
sg22
V\u8f93\u51fa4
p129
sg24
g55
sg26
g55
sg28
g29
sg51
g47
sg52
I0
sg53
I4
sg54
g55
sba(iMyIoNode
IoNode
p130
(dp131
g15
g118
sg22
V\u8f93\u51fa5
p132
sg24
g55
sg26
g55
sg28
g29
sg51
g47
sg52
I0
sg53
I5
sg54
g55
sba(iMyIoNode
IoNode
p133
(dp134
g15
g118
sg22
V\u8f93\u51fa6
p135
sg24
g55
sg26
g55
sg28
g29
sg51
g47
sg52
I0
sg53
I6
sg54
g55
sba(iMyIoNode
IoNode
p136
(dp137
g15
g118
sg22
V\u8f93\u51fa7
p138
sg24
g55
sg26
g55
sg28
g29
sg51
g47
sg52
I0
sg53
I7
sg54
g55
sba(iMyIoNode
IoNode
p139
(dp140
g15
g118
sg22
V\u8f93\u51fa8
p141
sg24
g55
sg26
g55
sg28
g29
sg51
g47
sg52
I0
sg53
I8
sg54
g55
sbasg86
I2
sg22
g87
sbsg22
V\u8f93\u51fa1
p142
sg24
g55
sg26
g55
sg28
g29
sg51
g47
sg52
I1
sg53
I1
sg54
g55
sbsbasba(iMyAction
ActionGroup
p143
(dp144
g31
V\u672a\u5b9a\u4e49
p145
sg22
V\u8f93\u51fa1\u5173
p146
sg107
(lp147
(iMyAction
ActionOutput
p148
(dp149
g111
I0
sg112
Nsg113
I0
sg86
I0
sg114
I0
sg115
g116
sbasba(iMyAction
ActionGroup
p150
(dp151
g31
V\u672a\u5b9a\u4e49
p152
sg22
V\u8f93\u51fa2\u5f00
p153
sg107
(lp154
(iMyAction
ActionOutput
p155
(dp156
g111
I0
sg112
Nsg113
I0
sg86
I0
sg114
I1
sg115
g121
sbasba(iMyAction
ActionGroup
p157
(dp158
g31
V\u672a\u5b9a\u4e49
p159
sg22
V\u8f93\u51fa2\u5173
p160
sg107
(lp161
(iMyAction
ActionOutput
p162
(dp163
g111
I0
sg112
Nsg113
I0
sg86
I0
sg114
I0
sg115
g121
sbasbasbsS'deviceController'
p164
NsS'IoNodeCfg'
p165
(iMyConfiguration
IoNodeConfiguration
p166
(dp167
S'inputIoCategoryList'
p168
(lp169
g16
asS'outputIoCategoryList'
p170
(lp171
g118
asbsb.