(i__main__
CfgContainer
p0
(dp1
S'IoNodeMgmt'
p2
(iMyIoNode
IoNodeMgmt
p3
(dp4
S'inputIoCategoryList'
p5
(lp6
sS'outputIoCategoryList'
p7
(lp8
sbsS'stationCfg'
p9
(iMyCanStation
StationConfiguration
p10
(dp11
S'stationList'
p12
(lp13
(iMyCanStation
DeviceCanStation
p14
(dp15
S'info'
p16
V\u672a\u5b9a\u4e49
p17
sS'InputBoardList'
p18
(lp19
(iMyCanStation
DeviceIoBoard
p20
(dp21
S'boardType'
p22
I1
sS'boardId'
p23
I1
sS'isOk'
p24
I0
sS'statusCheckTaskEvent'
p25
NsS'pendingReq'
p26
I0
sS'station'
p27
g14
sS'setIoEvent'
p28
NsS'IoStatus'
p29
I0
sS'boardStatus'
p30
I0
sbasS'name'
p31
V\u9ed8\u8ba4\u7ad9\u70b9
p32
sS'OutputBoardList'
p33
(lp34
sS'pendingStatusCheck'
p35
I0
sS'daemon'
p36
NsS'stationId'
p37
I1
sbasbsS'deviceController'
p38
Nsb.