(iMyConfiguration
CfgContainer
p0
(dp1
S'guiCfg'
p2
(iMyConfiguration
GuiLayoutConfiguration
p3
(dp4
S'statusDisplayCfgList'
p5
(lp6
sS'buttonLayoutCfgList'
p7
(lp8
(iMyConfiguration
TransporterLayoutCfg
p9
(dp10
S'pos'
p11
(I817
I388
tp12
sba(iMyConfiguration
TransporterLayoutCfg
p13
(dp14
g11
(I23
I375
tp15
sbasbsS'stationCfg'
p16
(iMyConfiguration
StationConfiguration
p17
(dp18
S'stationList'
p19
(lp20
sbsS'actionGroupCfg'
p21
(iMyConfiguration
ActionGroupConfiguration
p22
(dp23
S'actionGrpList'
p24
(lp25
sbsS'deviceController'
p26
NsS'IoNodeCfg'
p27
(iMyConfiguration
IoNodeConfiguration
p28
(dp29
S'inputIoCategoryList'
p30
(lp31
sS'outputIoCategoryList'
p32
(lp33
sbsb.